; Function Attrs: nounwind uwtable
define ptr @l_Lean_RBNode_insert___at_Lake_Package_loadFromEnv___spec__23___boxed(ptr noundef %0, ptr noundef %1, ptr noundef %2, ptr noundef %3) local_unnamed_addr #2 {
  %5 = tail call zeroext i8 @l_Lean_RBNode_isRed___rarg(ptr noundef %1) #5
  %6 = icmp eq i8 %5, 0
  br i1 %6, label %7, label %9

7:                                                ; preds = %4
  %8 = tail call ptr @l_Lean_RBNode_ins___at_Lake_Package_loadFromEnv___spec__24(ptr noundef %0, ptr noundef %1, ptr noundef %2, ptr noundef %3)
  br label %l_Lean_RBNode_insert___at_Lake_Package_loadFromEnv___spec__23.exit

9:                                                ; preds = %4
  %10 = tail call ptr @l_Lean_RBNode_ins___at_Lake_Package_loadFromEnv___spec__25(ptr noundef %0, ptr noundef %1, ptr noundef %2, ptr noundef %3)
  %11 = tail call ptr @l_Lean_RBNode_setBlack___rarg(ptr noundef %10) #5
  br label %l_Lean_RBNode_insert___at_Lake_Package_loadFromEnv___spec__23.exit

l_Lean_RBNode_insert___at_Lake_Package_loadFromEnv___spec__23.exit: ; preds = %7, %9
  %.0.i = phi ptr [ %8, %7 ], [ %11, %9 ]
  %12 = ptrtoint ptr %0 to i64
  %13 = and i64 %12, 1
  %.not = icmp eq i64 %13, 0
  br i1 %.not, label %14, label %lean_dec.exit

14:                                               ; preds = %l_Lean_RBNode_insert___at_Lake_Package_loadFromEnv___spec__23.exit
  %15 = load i32, ptr %0, align 4, !tbaa !8
  %16 = icmp sgt i32 %15, 1
  br i1 %16, label %17, label %19, !prof !11

17:                                               ; preds = %14
  %18 = add nsw i32 %15, -1
  store i32 %18, ptr %0, align 4, !tbaa !8
  br label %lean_dec.exit

19:                                               ; preds = %14
  %.not.i = icmp eq i32 %15, 0
  br i1 %.not.i, label %lean_dec.exit, label %20

20:                                               ; preds = %19
  tail call void @lean_dec_ref_cold(ptr noundef nonnull %0) #5
  br label %lean_dec.exit

lean_dec.exit:                                    ; preds = %20, %19, %17, %l_Lean_RBNode_insert___at_Lake_Package_loadFromEnv___spec__23.exit
  ret ptr %.0.i
}